target datalayout = "e-m:e-p270:32:32-p271:32:32-p272:64:64-i64:64-i128:128-f80:128-n8:16:32:64-S128"
target triple = "x86_64-pc-linux-gnu"

%struct.stat = type { i64, i64, i64, i32, i32, i32, i32, i64, i64, i64, i64, %struct.timespec, %struct.timespec, %struct.timespec, [3 x i64] }
%struct.timespec = type { i64, i64 }
%struct.pathspec = type { i32, i8, i32, i32, ptr }
%struct.diff_options = type { ptr, ptr, i32, i32, ptr, i32, ptr, i64, i64, ptr, ptr, ptr, ptr, %struct.diff_flags, i32, i32, i32, i32, i32, i32, i32, i32, i32, i32, i32, i32, i32, i32, i32, i32, i32, i32, i32, i32, i32, i32, ptr, i32, ptr, i32, i32, ptr, i64, i64, i32, i32, i32, i32, ptr, i32, i32, ptr, i32, i32, ptr, ptr, i32, [3 x i8], %struct.pathspec, ptr, ptr, ptr, ptr, ptr, ptr, ptr, ptr, i32, ptr, i32, i32, ptr, ptr, i32 }
%struct.diff_flags = type { i32, i32, i32, i32, i32, i32, i32, i32, i32, i32, i32, i32, i32, i32, i32, i32, i32, i32, i32, i32, i32, i32, i32, i32, i32, i32, i32, i32, i32, i32, i32, i32, i32, i32, i32 }
%struct.repository = type { ptr, ptr, ptr, ptr, ptr, %struct.strmap, %struct.strmap, %struct.repo_path_cache, ptr, ptr, ptr, ptr, %struct.repo_settings, ptr, ptr, ptr, ptr, ptr, ptr, i32, i32, i32, ptr, ptr, i32, i32, i8 }
%struct.strmap = type { %struct.hashmap, ptr, i8 }
%struct.hashmap = type { ptr, ptr, ptr, i32, i32, i32, i32, i8 }
%struct.repo_path_cache = type { ptr, ptr, ptr, ptr, ptr, ptr, ptr }
%struct.repo_settings = type { i32, i32, i32, i32, i32, i32, i32, i32, i32, i32, i32, i32, ptr, i32, i32, i32, i32, i32, i32, i32, i64, i64, i64 }
%struct.cache_time = type { i32, i32 }
%struct.object_id = type { [32 x i8], i32 }
%struct.cache_entry = type { %struct.hashmap_entry, %struct.stat_data, i32, i32, i32, i32, i32, %struct.object_id, [0 x i8] }
%struct.hashmap_entry = type { ptr, i32 }
%struct.stat_data = type { %struct.cache_time, %struct.cache_time, i32, i32, i32, i32, i32 }

@has_symlinks = external global i32, align 4
@trust_executable_bit = external global i32, align 4

; Function Attrs: inlinehint nounwind uwtable
define internal i32 @create_ce_mode(i32 noundef %0) #3 {
  %2 = alloca i32, align 4
  %3 = alloca i32, align 4
  store i32 %0, ptr %3, align 4, !tbaa !9
  %4 = load i32, ptr %3, align 4, !tbaa !9
  %5 = and i32 %4, 61440
  %6 = icmp eq i32 %5, 40960
  br i1 %6, label %7, label %8

7:                                                ; preds = %1
  store i32 40960, ptr %2, align 4
  br label %27

8:                                                ; preds = %1
  %9 = load i32, ptr %3, align 4, !tbaa !9
  %10 = icmp eq i32 %9, 16384
  br i1 %10, label %11, label %12

11:                                               ; preds = %8
  store i32 16384, ptr %2, align 4
  br label %27

12:                                               ; preds = %8
  %13 = load i32, ptr %3, align 4, !tbaa !9
  %14 = and i32 %13, 61440
  %15 = icmp eq i32 %14, 16384
  br i1 %15, label %20, label %16

16:                                               ; preds = %12
  %17 = load i32, ptr %3, align 4, !tbaa !9
  %18 = and i32 %17, 61440
  %19 = icmp eq i32 %18, 57344
  br i1 %19, label %20, label %21

20:                                               ; preds = %16, %12
  store i32 57344, ptr %2, align 4
  br label %27

21:                                               ; preds = %16
  %22 = load i32, ptr %3, align 4, !tbaa !9
  %23 = and i32 %22, 64
  %24 = icmp ne i32 %23, 0
  %25 = select i1 %24, i32 493, i32 420
  %26 = or i32 32768, %25
  store i32 %26, ptr %2, align 4
  br label %27

27:                                               ; preds = %21, %20, %11, %7
  %28 = load i32, ptr %2, align 4
  ret i32 %28
}

; Function Attrs: inlinehint nounwind uwtable
define internal i32 @ce_mode_from_stat(ptr noundef %0, i32 noundef %1) #3 {
  %3 = alloca i32, align 4
  %4 = alloca ptr, align 8
  %5 = alloca i32, align 4
  store ptr %0, ptr %4, align 8, !tbaa !94
  store i32 %1, ptr %5, align 4, !tbaa !9
  %6 = load i32, ptr @has_symlinks, align 4, !tbaa !9
  %7 = icmp ne i32 %6, 0
  br i1 %7, label %25, label %8

8:                                                ; preds = %2
  %9 = load i32, ptr %5, align 4, !tbaa !9
  %10 = and i32 %9, 61440
  %11 = icmp eq i32 %10, 32768
  br i1 %11, label %12, label %25

12:                                               ; preds = %8
  %13 = load ptr, ptr %4, align 8, !tbaa !94
  %14 = icmp ne ptr %13, null
  br i1 %14, label %15, label %25

15:                                               ; preds = %12
  %16 = load ptr, ptr %4, align 8, !tbaa !94
  %17 = getelementptr inbounds nuw %struct.cache_entry, ptr %16, i32 0, i32 2
  %18 = load i32, ptr %17, align 4, !tbaa !9
  %19 = and i32 %18, 61440
  %20 = icmp eq i32 %19, 40960
  br i1 %20, label %21, label %25

21:                                               ; preds = %15
  %22 = load ptr, ptr %4, align 8, !tbaa !94
  %23 = getelementptr inbounds nuw %struct.cache_entry, ptr %22, i32 0, i32 2
  %24 = load i32, ptr %23, align 4, !tbaa !9
  store i32 %24, ptr %3, align 4
  br label %50

25:                                               ; preds = %15, %12, %8, %2
  %26 = load i32, ptr @trust_executable_bit, align 4, !tbaa !9
  %27 = icmp ne i32 %26, 0
  br i1 %27, label %47, label %28

28:                                               ; preds = %25
  %29 = load i32, ptr %5, align 4, !tbaa !9
  %30 = and i32 %29, 61440
  %31 = icmp eq i32 %30, 32768
  br i1 %31, label %32, label %47

32:                                               ; preds = %28
  %33 = load ptr, ptr %4, align 8, !tbaa !94
  %34 = icmp ne ptr %33, null
  br i1 %34, label %35, label %45

35:                                               ; preds = %32
  %36 = load ptr, ptr %4, align 8, !tbaa !94
  %37 = getelementptr inbounds nuw %struct.cache_entry, ptr %36, i32 0, i32 2
  %38 = load i32, ptr %37, align 4, !tbaa !9
  %39 = and i32 %38, 61440
  %40 = icmp eq i32 %39, 32768
  br i1 %40, label %41, label %45

41:                                               ; preds = %35
  %42 = load ptr, ptr %4, align 8, !tbaa !94
  %43 = getelementptr inbounds nuw %struct.cache_entry, ptr %42, i32 0, i32 2
  %44 = load i32, ptr %43, align 4, !tbaa !9
  store i32 %44, ptr %3, align 4
  br label %50

45:                                               ; preds = %35, %32
  %46 = call i32 @create_ce_mode(i32 noundef 438)
  store i32 %46, ptr %3, align 4
  br label %50

47:                                               ; preds = %28, %25
  %48 = load i32, ptr %5, align 4, !tbaa !9
  %49 = call i32 @create_ce_mode(i32 noundef %48)
  store i32 %49, ptr %3, align 4
  br label %50

50:                                               ; preds = %47, %45, %41, %21
  %51 = load i32, ptr %3, align 4
  ret i32 %51
}

; Function Attrs: nounwind uwtable
define internal i32 @match_stat_with_submodule(ptr noundef %0, ptr noundef %1, ptr noundef %2, i32 noundef %3, ptr noundef %4) #0 {
  %6 = alloca ptr, align 8
  %7 = alloca ptr, align 8
  %8 = alloca ptr, align 8
  %9 = alloca i32, align 4
  %10 = alloca ptr, align 8
  %11 = alloca i32, align 4
  %12 = alloca %struct.diff_flags, align 4
  store ptr %0, ptr %6, align 8, !tbaa !129
  store ptr %1, ptr %7, align 8, !tbaa !94
  store ptr %2, ptr %8, align 8, !tbaa !125
  store i32 %3, ptr %9, align 4, !tbaa !9
  store ptr %4, ptr %10, align 8, !tbaa !131
  call void @llvm.lifetime.start.p0(i64 4, ptr %11) #11
  %13 = load ptr, ptr %6, align 8, !tbaa !129
  %14 = getelementptr inbounds nuw %struct.diff_options, ptr %13, i32 0, i32 71
  %15 = load ptr, ptr %14, align 8, !tbaa !132
  %16 = getelementptr inbounds nuw %struct.repository, ptr %15, i32 0, i32 15
  %17 = load ptr, ptr %16, align 8, !tbaa !63
  %18 = load ptr, ptr %7, align 8, !tbaa !94
  %19 = load ptr, ptr %8, align 8, !tbaa !125
  %20 = load i32, ptr %9, align 4, !tbaa !9
  %21 = call i32 @ie_match_stat(ptr noundef %17, ptr noundef %18, ptr noundef %19, i32 noundef %20)
  store i32 %21, ptr %11, align 4, !tbaa !9
  %22 = load ptr, ptr %7, align 8, !tbaa !94
  %23 = getelementptr inbounds nuw %struct.cache_entry, ptr %22, i32 0, i32 2
  %24 = load i32, ptr %23, align 4, !tbaa !9
  %25 = and i32 %24, 61440
  %26 = icmp eq i32 %25, 57344
  br i1 %26, label %27, label %76

27:                                               ; preds = %5
  call void @llvm.lifetime.start.p0(i64 140, ptr %12) #11
  %28 = load ptr, ptr %6, align 8, !tbaa !129
  %29 = getelementptr inbounds nuw %struct.diff_options, ptr %28, i32 0, i32 13
  call void @llvm.memcpy.p0.p0.i64(ptr align 4 %12, ptr align 8 %29, i64 140, i1 false), !tbaa.struct !133
  %30 = load ptr, ptr %6, align 8, !tbaa !129
  %31 = getelementptr inbounds nuw %struct.diff_options, ptr %30, i32 0, i32 13
  %32 = getelementptr inbounds nuw %struct.diff_flags, ptr %31, i32 0, i32 27
  %33 = load i32, ptr %32, align 4, !tbaa !134
  %34 = icmp ne i32 %33, 0
  br i1 %34, label %40, label %35

35:                                               ; preds = %27
  %36 = load ptr, ptr %6, align 8, !tbaa !129
  %37 = load ptr, ptr %7, align 8, !tbaa !94
  %38 = getelementptr inbounds nuw %struct.cache_entry, ptr %37, i32 0, i32 8
  %39 = getelementptr inbounds [0 x i8], ptr %38, i64 0, i64 0
  call void @set_diffopt_flags_from_submodule_config(ptr noundef %36, ptr noundef %39)
  br label %40

40:                                               ; preds = %35, %27
  %41 = load ptr, ptr %6, align 8, !tbaa !129
  %42 = getelementptr inbounds nuw %struct.diff_options, ptr %41, i32 0, i32 13
  %43 = getelementptr inbounds nuw %struct.diff_flags, ptr %42, i32 0, i32 17
  %44 = load i32, ptr %43, align 4, !tbaa !135
  %45 = icmp ne i32 %44, 0
  br i1 %45, label %46, label %47

46:                                               ; preds = %40
  store i32 0, ptr %11, align 4, !tbaa !9
  br label %73

47:                                               ; preds = %40
  %48 = load ptr, ptr %6, align 8, !tbaa !129
  %49 = getelementptr inbounds nuw %struct.diff_options, ptr %48, i32 0, i32 13
  %50 = getelementptr inbounds nuw %struct.diff_flags, ptr %49, i32 0, i32 26
  %51 = load i32, ptr %50, align 8, !tbaa !136
  %52 = icmp ne i32 %51, 0
  br i1 %52, label %72, label %53

53:                                               ; preds = %47
  %54 = load i32, ptr %11, align 4, !tbaa !9
  %55 = icmp ne i32 %54, 0
  br i1 %55, label %56, label %62

56:                                               ; preds = %53
  %57 = load ptr, ptr %6, align 8, !tbaa !129
  %58 = getelementptr inbounds nuw %struct.diff_options, ptr %57, i32 0, i32 13
  %59 = getelementptr inbounds nuw %struct.diff_flags, ptr %58, i32 0, i32 23
  %60 = load i32, ptr %59, align 4, !tbaa !137
  %61 = icmp ne i32 %60, 0
  br i1 %61, label %62, label %72

62:                                               ; preds = %56, %53
  %63 = load ptr, ptr %7, align 8, !tbaa !94
  %64 = getelementptr inbounds nuw %struct.cache_entry, ptr %63, i32 0, i32 8
  %65 = getelementptr inbounds [0 x i8], ptr %64, i64 0, i64 0
  %66 = load ptr, ptr %6, align 8, !tbaa !129
  %67 = getelementptr inbounds nuw %struct.diff_options, ptr %66, i32 0, i32 13
  %68 = getelementptr inbounds nuw %struct.diff_flags, ptr %67, i32 0, i32 24
  %69 = load i32, ptr %68, align 8, !tbaa !138
  %70 = call i32 @is_submodule_modified(ptr noundef %65, i32 noundef %69)
  %71 = load ptr, ptr %10, align 8, !tbaa !131
  store i32 %70, ptr %71, align 4, !tbaa !9
  br label %72

72:                                               ; preds = %62, %56, %47
  br label %73

73:                                               ; preds = %72, %46
  %74 = load ptr, ptr %6, align 8, !tbaa !129
  %75 = getelementptr inbounds nuw %struct.diff_options, ptr %74, i32 0, i32 13
  call void @llvm.memcpy.p0.p0.i64(ptr align 8 %75, ptr align 4 %12, i64 140, i1 false), !tbaa.struct !133
  call void @llvm.lifetime.end.p0(i64 140, ptr %12) #11
  br label %76

76:                                               ; preds = %73, %5
  %77 = load i32, ptr %11, align 4, !tbaa !9
  call void @llvm.lifetime.end.p0(i64 4, ptr %11) #11
  ret i32 %77
}

; Function Attrs: nounwind uwtable
define internal i32 @get_stat_data(ptr noundef %0, ptr noundef %1, ptr noundef %2, i32 noundef %3, i32 noundef %4, ptr noundef %5, ptr noundef %6) #0 {
  %8 = alloca i32, align 4
  %9 = alloca ptr, align 8
  %10 = alloca ptr, align 8
  %11 = alloca ptr, align 8
  %12 = alloca i32, align 4
  %13 = alloca i32, align 4
  %14 = alloca ptr, align 8
  %15 = alloca ptr, align 8
  %16 = alloca ptr, align 8
  %17 = alloca i32, align 4
  %18 = alloca i32, align 4
  %19 = alloca %struct.stat, align 8
  %20 = alloca i32, align 4
  store ptr %0, ptr %9, align 8, !tbaa !94
  store ptr %1, ptr %10, align 8, !tbaa !212
  store ptr %2, ptr %11, align 8, !tbaa !131
  store i32 %3, ptr %12, align 4, !tbaa !9
  store i32 %4, ptr %13, align 4, !tbaa !9
  store ptr %5, ptr %14, align 8, !tbaa !131
  store ptr %6, ptr %15, align 8, !tbaa !129
  call void @llvm.lifetime.start.p0(i64 8, ptr %16) #11
  %21 = load ptr, ptr %9, align 8, !tbaa !94
  %22 = getelementptr inbounds nuw %struct.cache_entry, ptr %21, i32 0, i32 7
  store ptr %22, ptr %16, align 8, !tbaa !120
  call void @llvm.lifetime.start.p0(i64 4, ptr %17) #11
  %23 = load ptr, ptr %9, align 8, !tbaa !94
  %24 = getelementptr inbounds nuw %struct.cache_entry, ptr %23, i32 0, i32 2
  %25 = load i32, ptr %24, align 4, !tbaa !9
  store i32 %25, ptr %17, align 4, !tbaa !9
  %26 = load i32, ptr %12, align 4, !tbaa !9
  %27 = icmp ne i32 %26, 0
  br i1 %27, label %70, label %28

28:                                               ; preds = %7
  %29 = load ptr, ptr %9, align 8, !tbaa !94
  %30 = getelementptr inbounds nuw %struct.cache_entry, ptr %29, i32 0, i32 3
  %31 = load i32, ptr %30, align 8, !tbaa !9
  %32 = and i32 %31, 262144
  %33 = icmp ne i32 %32, 0
  br i1 %33, label %70, label %34

34:                                               ; preds = %28
  call void @llvm.lifetime.start.p0(i64 4, ptr %18) #11
  call void @llvm.lifetime.start.p0(i64 144, ptr %19) #11
  %35 = load ptr, ptr %9, align 8, !tbaa !94
  %36 = call i32 @check_removed(ptr noundef %35, ptr noundef %19)
  store i32 %36, ptr %18, align 4, !tbaa !9
  %37 = load i32, ptr %18, align 4, !tbaa !9
  %38 = icmp slt i32 %37, 0
  br i1 %38, label %39, label %40

39:                                               ; preds = %34
  store i32 -1, ptr %8, align 4
  store i32 1, ptr %20, align 4
  br label %67

40:                                               ; preds = %34
  %41 = load i32, ptr %18, align 4, !tbaa !9
  %42 = icmp ne i32 %41, 0
  br i1 %42, label %43, label %52

43:                                               ; preds = %40
  %44 = load i32, ptr %13, align 4, !tbaa !9
  %45 = icmp ne i32 %44, 0
  br i1 %45, label %46, label %51

46:                                               ; preds = %43
  %47 = load ptr, ptr %16, align 8, !tbaa !120
  %48 = load ptr, ptr %10, align 8, !tbaa !212
  store ptr %47, ptr %48, align 8, !tbaa !120
  %49 = load i32, ptr %17, align 4, !tbaa !9
  %50 = load ptr, ptr %11, align 8, !tbaa !131
  store i32 %49, ptr %50, align 4, !tbaa !9
  store i32 0, ptr %8, align 4
  store i32 1, ptr %20, align 4
  br label %67

51:                                               ; preds = %43
  store i32 -1, ptr %8, align 4
  store i32 1, ptr %20, align 4
  br label %67

52:                                               ; preds = %40
  br label %53

53:                                               ; preds = %52
  %54 = load ptr, ptr %15, align 8, !tbaa !129
  %55 = load ptr, ptr %9, align 8, !tbaa !94
  %56 = load ptr, ptr %14, align 8, !tbaa !131
  %57 = call i32 @match_stat_with_submodule(ptr noundef %54, ptr noundef %55, ptr noundef %19, i32 noundef 0, ptr noundef %56)
  store i32 %57, ptr %18, align 4, !tbaa !9
  %58 = load i32, ptr %18, align 4, !tbaa !9
  %59 = icmp ne i32 %58, 0
  br i1 %59, label %60, label %66

60:                                               ; preds = %53
  %61 = load ptr, ptr %9, align 8, !tbaa !94
  %62 = getelementptr inbounds nuw %struct.stat, ptr %19, i32 0, i32 3
  %63 = load i32, ptr %62, align 8, !tbaa !99
  %64 = call i32 @ce_mode_from_stat(ptr noundef %61, i32 noundef %63)
  store i32 %64, ptr %17, align 4, !tbaa !9
  %65 = call ptr @null_oid()
  store ptr %65, ptr %16, align 8, !tbaa !120
  br label %66

66:                                               ; preds = %60, %53
  store i32 0, ptr %20, align 4
  br label %67

67:                                               ; preds = %66, %51, %46, %39
  call void @llvm.lifetime.end.p0(i64 144, ptr %19) #11
  call void @llvm.lifetime.end.p0(i64 4, ptr %18) #11
  %68 = load i32, ptr %20, align 4
  switch i32 %68, label %75 [
    i32 0, label %69
  ]

69:                                               ; preds = %67
  br label %70

70:                                               ; preds = %69, %28, %7
  %71 = load ptr, ptr %16, align 8, !tbaa !120
  %72 = load ptr, ptr %10, align 8, !tbaa !212
  store ptr %71, ptr %72, align 8, !tbaa !120
  %73 = load i32, ptr %17, align 4, !tbaa !9
  %74 = load ptr, ptr %11, align 8, !tbaa !131
  store i32 %73, ptr %74, align 4, !tbaa !9
  store i32 0, ptr %8, align 4
  store i32 1, ptr %20, align 4
  br label %75

75:                                               ; preds = %70, %67
  call void @llvm.lifetime.end.p0(i64 4, ptr %17) #11
  call void @llvm.lifetime.end.p0(i64 8, ptr %16) #11
  %76 = load i32, ptr %8, align 4
  ret i32 %76
}