; Function Attrs: nounwind uwtable
define internal fastcc range(i32 -1, 1) i32 @get_stat_data(ptr noundef %0, ptr noundef nonnull writeonly captures(none) %1, ptr noundef nonnull writeonly captures(none) %2, i32 noundef range(i32 0, 2) %3, i32 noundef range(i32 0, 2) %4, ptr noundef nonnull writeonly captures(none) %5, ptr noundef %6) unnamed_addr #0 {
  %8 = alloca %struct.diff_flags, align 4
  %9 = alloca %struct.stat, align 8
  %10 = getelementptr inbounds nuw i8, ptr %0, i64 72
  %11 = getelementptr inbounds nuw i8, ptr %0, i64 52
  %12 = load i32, ptr %11, align 4, !tbaa !92
  %.not = icmp eq i32 %3, 0
  br i1 %.not, label %13, label %77

13:                                               ; preds = %7
  %14 = getelementptr inbounds nuw i8, ptr %0, i64 56
  %15 = load i32, ptr %14, align 8, !tbaa !92
  %16 = and i32 %15, 262144
  %.not29 = icmp eq i32 %16, 0
  br i1 %.not29, label %17, label %77

17:                                               ; preds = %13
  call void @llvm.lifetime.start.p0(i64 144, ptr nonnull %9) #15
  %18 = call fastcc i32 @check_removed(ptr noundef nonnull %0, ptr noundef %9)
  %19 = icmp slt i32 %18, 0
  br i1 %19, label %.thread, label %20

20:                                               ; preds = %17
  %.not30 = icmp eq i32 %18, 0
  br i1 %.not30, label %23, label %21

21:                                               ; preds = %20
  %.not32 = icmp eq i32 %4, 0
  br i1 %.not32, label %.thread, label %22

22:                                               ; preds = %21
  store ptr %10, ptr %1, align 8, !tbaa !184
  store i32 %12, ptr %2, align 4, !tbaa !92
  br label %.thread

23:                                               ; preds = %20
  %24 = getelementptr inbounds nuw i8, ptr %6, i64 568
  %25 = load ptr, ptr %24, align 8, !tbaa !110
  %26 = getelementptr inbounds nuw i8, ptr %25, i64 384
  %27 = load ptr, ptr %26, align 8, !tbaa !59
  %28 = call i32 @ie_match_stat(ptr noundef %27, ptr noundef nonnull %0, ptr noundef nonnull %9, i32 noundef 0) #15
  %29 = load i32, ptr %11, align 4, !tbaa !92
  %30 = and i32 %29, 61440
  %31 = icmp eq i32 %30, 57344
  br i1 %31, label %32, label %match_stat_with_submodule.exit

32:                                               ; preds = %23
  call void @llvm.lifetime.start.p0(i64 140, ptr nonnull %8)
  %33 = getelementptr inbounds nuw i8, ptr %6, i64 96
  call void @llvm.memcpy.p0.p0.i64(ptr noundef nonnull align 4 dereferenceable(140) %8, ptr noundef nonnull align 8 dereferenceable(140) %33, i64 140, i1 false), !tbaa.struct !111
  %34 = getelementptr inbounds nuw i8, ptr %6, i64 204
  %35 = load i32, ptr %34, align 4, !tbaa !112
  %.not.i = icmp eq i32 %35, 0
  br i1 %.not.i, label %36, label %38

36:                                               ; preds = %32
  %37 = getelementptr inbounds nuw i8, ptr %0, i64 108
  call void @set_diffopt_flags_from_submodule_config(ptr noundef nonnull %6, ptr noundef nonnull %37) #15
  br label %38

38:                                               ; preds = %36, %32
  %39 = getelementptr inbounds nuw i8, ptr %6, i64 164
  %40 = load i32, ptr %39, align 4, !tbaa !113
  %.not18.i = icmp eq i32 %40, 0
  br i1 %.not18.i, label %41, label %53

41:                                               ; preds = %38
  %42 = getelementptr inbounds nuw i8, ptr %6, i64 200
  %43 = load i32, ptr %42, align 8, !tbaa !114
  %.not19.i = icmp eq i32 %43, 0
  br i1 %.not19.i, label %44, label %53

44:                                               ; preds = %41
  %.not20.i = icmp eq i32 %28, 0
  br i1 %.not20.i, label %48, label %45

45:                                               ; preds = %44
  %46 = getelementptr inbounds nuw i8, ptr %6, i64 188
  %47 = load i32, ptr %46, align 4, !tbaa !115
  %.not21.i = icmp eq i32 %47, 0
  br i1 %.not21.i, label %53, label %48

48:                                               ; preds = %45, %44
  %49 = getelementptr inbounds nuw i8, ptr %0, i64 108
  %50 = getelementptr inbounds nuw i8, ptr %6, i64 192
  %51 = load i32, ptr %50, align 8, !tbaa !116
  %52 = call i32 @is_submodule_modified(ptr noundef nonnull %49, i32 noundef %51) #15
  store i32 %52, ptr %5, align 4, !tbaa !92
  br label %53

53:                                               ; preds = %48, %45, %41, %38
  %.1.i = phi i32 [ %28, %41 ], [ %28, %48 ], [ %28, %45 ], [ 0, %38 ]
  call void @llvm.memcpy.p0.p0.i64(ptr noundef nonnull align 8 dereferenceable(140) %33, ptr noundef nonnull align 4 dereferenceable(140) %8, i64 140, i1 false), !tbaa.struct !111
  call void @llvm.lifetime.end.p0(i64 140, ptr nonnull %8)
  br label %match_stat_with_submodule.exit

match_stat_with_submodule.exit:                   ; preds = %23, %53
  %.0.i = phi i32 [ %.1.i, %53 ], [ %28, %23 ]
  %.not31 = icmp eq i32 %.0.i, 0
  br i1 %.not31, label %76, label %54

54:                                               ; preds = %match_stat_with_submodule.exit
  %55 = getelementptr inbounds nuw i8, ptr %9, i64 24
  %56 = load i32, ptr %55, align 8, !tbaa !95
  %57 = load i32, ptr @has_symlinks, align 4, !tbaa !92
  %.not.i33 = icmp eq i32 %57, 0
  %58 = and i32 %56, 61440
  %59 = icmp eq i32 %58, 32768
  %or.cond = select i1 %.not.i33, i1 %59, i1 false
  br i1 %or.cond, label %60, label %._crit_edge.i

60:                                               ; preds = %54
  %61 = load i32, ptr %11, align 4, !tbaa !92
  %62 = and i32 %61, 61440
  %63 = icmp eq i32 %62, 40960
  br i1 %63, label %ce_mode_from_stat.exit, label %.thread.i

._crit_edge.i:                                    ; preds = %54
  %64 = load i32, ptr @trust_executable_bit, align 4, !tbaa !92
  %.not11.i = icmp eq i32 %64, 0
  %or.cond14.i = and i1 %59, %.not11.i
  br i1 %or.cond14.i, label %._crit_edge.i..thread28.i_crit_edge, label %68

._crit_edge.i..thread28.i_crit_edge:              ; preds = %._crit_edge.i
  %.pre = load i32, ptr %11, align 4, !tbaa !92
  %.pre39 = and i32 %.pre, 61440
  br label %.thread28.i

.thread.i:                                        ; preds = %60
  %65 = load i32, ptr @trust_executable_bit, align 4, !tbaa !92
  %.not1116.i = icmp eq i32 %65, 0
  br i1 %.not1116.i, label %.thread28.i, label %.thread25.i

.thread28.i:                                      ; preds = %._crit_edge.i..thread28.i_crit_edge, %.thread.i
  %.pre-phi = phi i32 [ %.pre39, %._crit_edge.i..thread28.i_crit_edge ], [ %62, %.thread.i ]
  %66 = phi i32 [ %.pre, %._crit_edge.i..thread28.i_crit_edge ], [ %61, %.thread.i ]
  %67 = icmp eq i32 %.pre-phi, 32768
  %spec.select = select i1 %67, i32 %66, i32 33188
  br label %ce_mode_from_stat.exit

68:                                               ; preds = %._crit_edge.i
  %69 = icmp eq i32 %58, 40960
  br i1 %69, label %ce_mode_from_stat.exit, label %70

70:                                               ; preds = %68
  %71 = icmp eq i32 %56, 16384
  br i1 %71, label %ce_mode_from_stat.exit, label %72

72:                                               ; preds = %70
  %trunc.i.i = trunc nuw i32 %58 to i16
  switch i16 %trunc.i.i, label %.thread25.i [
    i16 16384, label %ce_mode_from_stat.exit
    i16 -8192, label %ce_mode_from_stat.exit
  ]

.thread25.i:                                      ; preds = %72, %.thread.i
  %73 = and i32 %56, 64
  %.not.i.i = icmp eq i32 %73, 0
  %74 = select i1 %.not.i.i, i32 33188, i32 33261
  br label %ce_mode_from_stat.exit

ce_mode_from_stat.exit:                           ; preds = %.thread28.i, %60, %68, %70, %72, %72, %.thread25.i
  %.0.i34 = phi i32 [ %61, %60 ], [ %74, %.thread25.i ], [ 40960, %68 ], [ 16384, %70 ], [ 57344, %72 ], [ 57344, %72 ], [ %spec.select, %.thread28.i ]
  %75 = call ptr @null_oid() #15
  br label %76

.thread:                                          ; preds = %22, %17, %21
  %.026.ph = phi i32 [ -1, %21 ], [ -1, %17 ], [ 0, %22 ]
  call void @llvm.lifetime.end.p0(i64 144, ptr nonnull %9) #15
  br label %78

76:                                               ; preds = %match_stat_with_submodule.exit, %ce_mode_from_stat.exit
  %.124 = phi ptr [ %75, %ce_mode_from_stat.exit ], [ %10, %match_stat_with_submodule.exit ]
  %.1 = phi i32 [ %.0.i34, %ce_mode_from_stat.exit ], [ %12, %match_stat_with_submodule.exit ]
  call void @llvm.lifetime.end.p0(i64 144, ptr nonnull %9) #15
  br label %77

77:                                               ; preds = %76, %13, %7
  %.023 = phi ptr [ %10, %7 ], [ %10, %13 ], [ %.124, %76 ]
  %.022 = phi i32 [ %12, %7 ], [ %12, %13 ], [ %.1, %76 ]
  store ptr %.023, ptr %1, align 8, !tbaa !184
  store i32 %.022, ptr %2, align 4, !tbaa !92
  br label %78

78:                                               ; preds = %.thread, %77
  %.127 = phi i32 [ 0, %77 ], [ %.026.ph, %.thread ]
  ret i32 %.127
}